target datalayout = "e-m:e-p270:32:32-p271:32:32-p272:64:64-i64:64-i128:128-f80:128-n8:16:32:64-S128"
target triple = "x86_64-pc-linux-gnu"

%struct.strbuf = type { i64, i64, ptr }
%struct.push_default_info = type { ptr, i32, %struct.strbuf, i32 }

@strbuf_slopbuf = external global [0 x i8], align 1
@the_repository = external global ptr, align 8
@.str.85 = private unnamed_addr constant [19 x i8] c"remote.pushDefault\00", align 1
@.str.86 = private unnamed_addr constant [19 x i8] c"could not set '%s'\00", align 1
@.str.87 = private unnamed_addr constant [21 x i8] c"could not unset '%s'\00", align 1
@.str.88 = private unnamed_addr constant [90 x i8] c"The %s configuration remote.pushDefault in:\0A\09%s:%d\0Anow names the non-existent remote '%s'\00", align 1

; Function Attrs: inlinehint nounwind uwtable
define internal i32 @git_config_set_gently(ptr noundef %0, ptr noundef %1) #4 {
  %3 = alloca ptr, align 8
  %4 = alloca ptr, align 8
  store ptr %0, ptr %3, align 8, !tbaa !11
  store ptr %1, ptr %4, align 8, !tbaa !11
  %5 = load ptr, ptr @the_repository, align 8, !tbaa !13
  %6 = load ptr, ptr %3, align 8, !tbaa !11
  %7 = load ptr, ptr %4, align 8, !tbaa !11
  %8 = call i32 @repo_config_set_gently(ptr noundef %5, ptr noundef %6, ptr noundef %7)
  ret i32 %8
}

; Function Attrs: inlinehint nounwind uwtable
define internal void @git_config(ptr noundef %0, ptr noundef %1) #4 {
  %3 = alloca ptr, align 8
  %4 = alloca ptr, align 8
  store ptr %0, ptr %3, align 8, !tbaa !15
  store ptr %1, ptr %4, align 8, !tbaa !15
  %5 = load ptr, ptr @the_repository, align 8, !tbaa !13
  %6 = load ptr, ptr %3, align 8, !tbaa !15
  %7 = load ptr, ptr %4, align 8, !tbaa !15
  call void @repo_config(ptr noundef %5, ptr noundef %6, ptr noundef %7)
  ret void
}

; Function Attrs: nounwind uwtable
define internal void @handle_push_default(ptr noundef %0, ptr noundef %1) #0 {
  %3 = alloca ptr, align 8
  %4 = alloca ptr, align 8
  %5 = alloca %struct.push_default_info, align 8
  %6 = alloca i32, align 4
  store ptr %0, ptr %3, align 8, !tbaa !11
  store ptr %1, ptr %4, align 8, !tbaa !11
  call void @llvm.lifetime.start.p0(i64 48, ptr %5) #11
  %7 = getelementptr inbounds nuw %struct.push_default_info, ptr %5, i32 0, i32 0
  %8 = load ptr, ptr %3, align 8, !tbaa !11
  store ptr %8, ptr %7, align 8, !tbaa !148
  %9 = getelementptr inbounds nuw %struct.push_default_info, ptr %5, i32 0, i32 1
  store i32 0, ptr %9, align 8, !tbaa !150
  %10 = getelementptr i8, ptr %5, i64 12
  call void @llvm.memset.p0.i64(ptr align 4 %10, i8 0, i64 4, i1 false)
  %11 = getelementptr inbounds nuw %struct.push_default_info, ptr %5, i32 0, i32 2
  %12 = getelementptr inbounds nuw %struct.strbuf, ptr %11, i32 0, i32 0
  store i64 0, ptr %12, align 8, !tbaa !134
  %13 = getelementptr inbounds nuw %struct.strbuf, ptr %11, i32 0, i32 1
  store i64 0, ptr %13, align 8, !tbaa !135
  %14 = getelementptr inbounds nuw %struct.strbuf, ptr %11, i32 0, i32 2
  store ptr @strbuf_slopbuf, ptr %14, align 8, !tbaa !35
  %15 = getelementptr inbounds nuw %struct.push_default_info, ptr %5, i32 0, i32 3
  store i32 -1, ptr %15, align 8, !tbaa !151
  %16 = getelementptr i8, ptr %5, i64 44
  call void @llvm.memset.p0.i64(ptr align 4 %16, i8 0, i64 4, i1 false)
  call void @git_config(ptr noundef @config_read_push_default, ptr noundef %5)
  %17 = getelementptr inbounds nuw %struct.push_default_info, ptr %5, i32 0, i32 1
  %18 = load i32, ptr %17, align 8, !tbaa !150
  %19 = icmp uge i32 %18, 5
  br i1 %19, label %20, label %21

20:                                               ; preds = %2
  br label %68

21:                                               ; preds = %2
  %22 = getelementptr inbounds nuw %struct.push_default_info, ptr %5, i32 0, i32 1
  %23 = load i32, ptr %22, align 8, !tbaa !150
  %24 = icmp uge i32 %23, 3
  br i1 %24, label %25, label %51

25:                                               ; preds = %21
  call void @llvm.lifetime.start.p0(i64 4, ptr %6) #11
  %26 = load ptr, ptr %4, align 8, !tbaa !11
  %27 = call i32 @git_config_set_gently(ptr noundef @.str.85, ptr noundef %26)
  store i32 %27, ptr %6, align 4, !tbaa !4
  %28 = load ptr, ptr %4, align 8, !tbaa !11
  %29 = icmp ne ptr %28, null
  br i1 %29, label %30, label %38

30:                                               ; preds = %25
  %31 = load i32, ptr %6, align 4, !tbaa !4
  %32 = icmp ne i32 %31, 0
  br i1 %32, label %33, label %38

33:                                               ; preds = %30
  %34 = load i32, ptr %6, align 4, !tbaa !4
  %35 = icmp ne i32 %34, 5
  br i1 %35, label %36, label %38

36:                                               ; preds = %33
  %37 = call ptr @_(ptr noundef @.str.86)
  call void (ptr, ...) @die(ptr noundef %37, ptr noundef @.str.85) #12
  unreachable

38:                                               ; preds = %33, %30, %25
  %39 = load ptr, ptr %4, align 8, !tbaa !11
  %40 = icmp ne ptr %39, null
  br i1 %40, label %49, label %41

41:                                               ; preds = %38
  %42 = load i32, ptr %6, align 4, !tbaa !4
  %43 = icmp ne i32 %42, 0
  br i1 %43, label %44, label %49

44:                                               ; preds = %41
  %45 = load i32, ptr %6, align 4, !tbaa !4
  %46 = icmp ne i32 %45, 5
  br i1 %46, label %47, label %49

47:                                               ; preds = %44
  %48 = call ptr @_(ptr noundef @.str.87)
  call void (ptr, ...) @die(ptr noundef %48, ptr noundef @.str.85) #12
  unreachable

49:                                               ; preds = %44, %41, %38
  br label %50

50:                                               ; preds = %49
  call void @llvm.lifetime.end.p0(i64 4, ptr %6) #11
  br label %67

51:                                               ; preds = %21
  %52 = getelementptr inbounds nuw %struct.push_default_info, ptr %5, i32 0, i32 1
  %53 = load i32, ptr %52, align 8, !tbaa !150
  %54 = icmp uge i32 %53, 1
  br i1 %54, label %55, label %66

55:                                               ; preds = %51
  %56 = call ptr @_(ptr noundef @.str.88)
  %57 = getelementptr inbounds nuw %struct.push_default_info, ptr %5, i32 0, i32 1
  %58 = load i32, ptr %57, align 8, !tbaa !150
  %59 = call ptr @config_scope_name(i32 noundef %58)
  %60 = getelementptr inbounds nuw %struct.push_default_info, ptr %5, i32 0, i32 2
  %61 = getelementptr inbounds nuw %struct.strbuf, ptr %60, i32 0, i32 2
  %62 = load ptr, ptr %61, align 8, !tbaa !152
  %63 = getelementptr inbounds nuw %struct.push_default_info, ptr %5, i32 0, i32 3
  %64 = load i32, ptr %63, align 8, !tbaa !151
  %65 = load ptr, ptr %3, align 8, !tbaa !11
  call void (ptr, ...) @warning(ptr noundef %56, ptr noundef %59, ptr noundef %62, i32 noundef %64, ptr noundef %65)
  br label %66

66:                                               ; preds = %55, %51
  br label %67

67:                                               ; preds = %66, %50
  br label %68

68:                                               ; preds = %67, %20
  %69 = getelementptr inbounds nuw %struct.push_default_info, ptr %5, i32 0, i32 2
  call void @strbuf_release(ptr noundef %69)
  call void @llvm.lifetime.end.p0(i64 48, ptr %5) #11
  ret void
}