; Function Attrs: nounwind uwtable
define internal fastcc void @handle_push_default(ptr noundef %0, ptr noundef %1) unnamed_addr #0 {
  %3 = alloca %struct.push_default_info, align 8
  call void @llvm.lifetime.start.p0(i64 48, ptr nonnull %3) #19
  store ptr %0, ptr %3, align 8, !tbaa !128
  %4 = getelementptr inbounds nuw i8, ptr %3, i64 8
  %5 = getelementptr inbounds nuw i8, ptr %3, i64 32
  call void @llvm.memset.p0.i64(ptr noundef nonnull align 8 dereferenceable(24) %4, i8 0, i64 24, i1 false)
  store ptr @strbuf_slopbuf, ptr %5, align 8, !tbaa !24
  %6 = getelementptr inbounds nuw i8, ptr %3, i64 40
  store i32 -1, ptr %6, align 8, !tbaa !130
  %7 = getelementptr inbounds nuw i8, ptr %3, i64 44
  store i32 0, ptr %7, align 4
  %8 = load ptr, ptr @the_repository, align 8, !tbaa !26
  call void @repo_config(ptr noundef %8, ptr noundef nonnull @config_read_push_default, ptr noundef nonnull %3) #19
  %9 = load i32, ptr %4, align 8, !tbaa !131
  %10 = icmp ugt i32 %9, 4
  br i1 %10, label %35, label %11

11:                                               ; preds = %2
  %12 = icmp samesign ugt i32 %9, 2
  br i1 %12, label %13, label %26

13:                                               ; preds = %11
  %14 = load ptr, ptr @the_repository, align 8, !tbaa !26
  %15 = call i32 @repo_config_set_gently(ptr noundef %14, ptr noundef nonnull @.str.85, ptr noundef %1) #19
  %16 = icmp ne ptr %1, null
  %17 = icmp ne i32 %15, 0
  %18 = icmp ne i32 %15, 5
  %19 = and i1 %17, %18
  %or.cond3 = select i1 %16, i1 %19, i1 false
  br i1 %or.cond3, label %20, label %22

20:                                               ; preds = %13
  %21 = call fastcc ptr @_(ptr noundef nonnull @.str.86)
  call void (ptr, ...) @die(ptr noundef %21, ptr noundef nonnull @.str.85) #20
  unreachable

22:                                               ; preds = %13
  %23 = icmp eq ptr %1, null
  br i1 %23, label %switch.early.test, label %35

switch.early.test:                                ; preds = %22
  switch i32 %15, label %24 [
    i32 5, label %35
    i32 0, label %35
  ]

24:                                               ; preds = %switch.early.test
  %25 = call fastcc ptr @_(ptr noundef nonnull @.str.87)
  call void (ptr, ...) @die(ptr noundef %25, ptr noundef nonnull @.str.85) #20
  unreachable

26:                                               ; preds = %11
  %.not = icmp eq i32 %9, 0
  br i1 %.not, label %35, label %27

27:                                               ; preds = %26
  %28 = load i32, ptr @git_gettext_enabled, align 4, !tbaa !21
  %.not4.i = icmp eq i32 %28, 0
  br i1 %.not4.i, label %_.exit, label %29

29:                                               ; preds = %27
  %30 = call ptr @dcgettext(ptr noundef null, ptr noundef nonnull @.str.88, i32 noundef 5) #19
  %.pre = load i32, ptr %4, align 8, !tbaa !131
  br label %_.exit

_.exit:                                           ; preds = %27, %29
  %31 = phi i32 [ %.pre, %29 ], [ %9, %27 ]
  %.0.i = phi ptr [ %30, %29 ], [ @.str.88, %27 ]
  %32 = call ptr @config_scope_name(i32 noundef %31) #19
  %33 = load ptr, ptr %5, align 8, !tbaa !132
  %34 = load i32, ptr %6, align 8, !tbaa !130
  call void (ptr, ...) @warning(ptr noundef %.0.i, ptr noundef %32, ptr noundef %33, i32 noundef %34, ptr noundef %0) #19
  br label %35

35:                                               ; preds = %22, %switch.early.test, %switch.early.test, %_.exit, %26, %2
  %36 = getelementptr inbounds nuw i8, ptr %3, i64 16
  call void @strbuf_release(ptr noundef nonnull %36) #19
  call void @llvm.lifetime.end.p0(i64 48, ptr nonnull %3) #19
  ret void
}